; Function Attrs: nounwind uwtable
define internal i32 @get_rsa_payload_e8(i32 noundef %0, ptr noundef captures(address_is_null) %1, ptr noundef %2) #0 {
  %4 = alloca [10 x ptr], align 16
  %5 = alloca [10 x ptr], align 16
  %6 = getelementptr inbounds nuw i8, ptr %2, i64 32
  %7 = load ptr, ptr %6, align 8, !tbaa !35
  %8 = tail call i32 @EVP_PKEY_get_base_id(ptr noundef %7) #8
  %.not = icmp eq i32 %8, 6
  br i1 %.not, label %12, label %9

9:                                                ; preds = %3
  %10 = load ptr, ptr %6, align 8, !tbaa !35
  %11 = tail call i32 @EVP_PKEY_get_base_id(ptr noundef %10) #8
  %.not5 = icmp eq i32 %11, 912
  br i1 %.not5, label %12, label %get_rsa_payload_exponent.exit

12:                                               ; preds = %9, %3
  %13 = load ptr, ptr %6, align 8, !tbaa !35
  %14 = tail call ptr @EVP_PKEY_get0_RSA(ptr noundef %13) #8
  %15 = tail call i32 @RSA_get_multi_prime_extra_count(ptr noundef %14) #8
  call void @llvm.lifetime.start.p0(i64 80, ptr nonnull %4) #8
  call void @llvm.lifetime.start.p0(i64 80, ptr nonnull %5) #8
  %16 = icmp ugt i32 %15, 5
  br i1 %16, label %17, label %.thread

17:                                               ; preds = %12
  %18 = call i32 @RSA_get0_multi_prime_crt_params(ptr noundef %14, ptr noundef nonnull %4, ptr noundef nonnull %5) #8
  %.not.i = icmp eq i32 %18, 0
  br i1 %.not.i, label %.thread, label %19

.thread:                                          ; preds = %17, %12
  call void @llvm.lifetime.end.p0(i64 80, ptr nonnull %5) #8
  call void @llvm.lifetime.end.p0(i64 80, ptr nonnull %4) #8
  br label %get_rsa_payload_exponent.exit

19:                                               ; preds = %17
  %20 = getelementptr inbounds nuw i8, ptr %4, i64 40
  %21 = load ptr, ptr %20, align 8, !tbaa !82
  call void @llvm.lifetime.end.p0(i64 80, ptr nonnull %5) #8
  call void @llvm.lifetime.end.p0(i64 80, ptr nonnull %4) #8
  %22 = icmp eq ptr %21, null
  br i1 %22, label %get_rsa_payload_exponent.exit, label %23

23:                                               ; preds = %19
  %24 = getelementptr inbounds nuw i8, ptr %2, i64 48
  %25 = load ptr, ptr %24, align 8, !tbaa !37
  %26 = getelementptr inbounds nuw i8, ptr %25, i64 8
  %27 = load i32, ptr %26, align 8, !tbaa !57
  %.not.i.i = icmp eq i32 %27, 2
  br i1 %.not.i.i, label %28, label %get_rsa_payload_exponent.exit

28:                                               ; preds = %23
  store ptr %21, ptr %6, align 8, !tbaa !35
  %29 = call i32 @default_fixup_args(i32 noundef %0, ptr noundef %1, ptr noundef nonnull %2)
  br label %get_rsa_payload_exponent.exit

get_rsa_payload_exponent.exit:                    ; preds = %28, %23, %19, %.thread, %9
  %.0 = phi i32 [ 0, %9 ], [ %29, %28 ], [ 0, %19 ], [ 0, %23 ], [ 0, %.thread ]
  ret i32 %.0
}